target datalayout = "e-m:e-p270:32:32-p271:32:32-p272:64:64-i64:64-i128:128-f80:128-n8:16:32:64-S128"
target triple = "x86_64-unknown-linux-gnu"

; Function Attrs: mustprogress nounwind uwtable
define linkonce_odr noundef ptr @_ZN9grpc_core9CppImplOfINS_4CallE9grpc_callE5FromCEPKS2_(ptr noundef %c_type) #5 comdat align 2 {
entry:
  %c_type.addr = alloca ptr, align 8
  store ptr %c_type, ptr %c_type.addr, align 8
  %0 = load ptr, ptr %c_type.addr, align 8
  ret ptr %0
}

; Function Attrs: mustprogress uwtable
define i32 @grpc_call_failed_before_recv_message(ptr noundef %c) #4 {
entry:
  %c.addr = alloca ptr, align 8
  store ptr %c, ptr %c.addr, align 8
  %0 = load ptr, ptr %c.addr, align 8
  %call = call noundef ptr @_ZN9grpc_core9CppImplOfINS_4CallE9grpc_callE5FromCEPKS2_(ptr noundef %0)
  %vtable = load ptr, ptr %call, align 8
  %vfn = getelementptr inbounds ptr, ptr %vtable, i64 6
  %1 = load ptr, ptr %vfn, align 8
  %call1 = call noundef zeroext i1 %1(ptr noundef nonnull align 8 dereferenceable(112) %call)
  %conv = zext i1 %call1 to i32
  ret i32 %conv
}