; Function Attrs: mustprogress uwtable
define noundef i32 @grpc_call_failed_before_recv_message(ptr noundef %c) local_unnamed_addr #3 {
entry:
  %vtable = load ptr, ptr %c, align 8
  %vfn = getelementptr inbounds i8, ptr %vtable, i64 48
  %0 = load ptr, ptr %vfn, align 8
  %call1 = tail call noundef zeroext i1 %0(ptr noundef nonnull align 8 dereferenceable(112) %c)
  %conv = zext i1 %call1 to i32
  ret i32 %conv
}